; ModuleID = '20/450.c'
source_filename = "20/450.c"
target datalayout = "e-m:e-p270:32:32-p271:32:32-p272:64:64-i64:64-f80:128-n8:16:32:64-S128"
target triple = "x86_64-pc-linux-gnu"

@.str = private unnamed_addr constant [5 x i8] c"%s%s\00", align 1
@.str.1 = private unnamed_addr constant [4 x i8] c"%s\0A\00", align 1

; Function Attrs: noinline nounwind uwtable
define dso_local i32 @max(i8* %0) #0 {
  %2 = alloca i8*, align 8
  %3 = alloca i32, align 4
  %4 = alloca i32, align 4
  %5 = alloca i32, align 4
  %6 = alloca i8, align 1
  store i8* %0, i8** %2, align 8
  store i32 0, i32* %5, align 4
  %7 = load i8*, i8** %2, align 8
  %8 = getelementptr inbounds i8, i8* %7, i64 0
  %9 = load i8, i8* %8, align 1
  store i8 %9, i8* %6, align 1
  %10 = load i8*, i8** %2, align 8
  %11 = call i64 @strlen(i8* %10) #3
  %12 = trunc i64 %11 to i32
  store i32 %12, i32* %3, align 4
  store i32 1, i32* %4, align 4
  br label %13

13:                                               ; preds = %36, %1
  %14 = load i32, i32* %4, align 4
  %15 = load i32, i32* %3, align 4
  %16 = sub nsw i32 %15, 1
  %17 = icmp sle i32 %14, %16
  br i1 %17, label %18, label %39

18:                                               ; preds = %13
  %19 = load i8*, i8** %2, align 8
  %20 = load i32, i32* %4, align 4
  %21 = sext i32 %20 to i64
  %22 = getelementptr inbounds i8, i8* %19, i64 %21
  %23 = load i8, i8* %22, align 1
  %24 = sext i8 %23 to i32
  %25 = load i8, i8* %6, align 1
  %26 = sext i8 %25 to i32
  %27 = icmp sgt i32 %24, %26
  br i1 %27, label %28, label %35

28:                                               ; preds = %18
  %29 = load i8*, i8** %2, align 8
  %30 = load i32, i32* %4, align 4
  %31 = sext i32 %30 to i64
  %32 = getelementptr inbounds i8, i8* %29, i64 %31
  %33 = load i8, i8* %32, align 1
  store i8 %33, i8* %6, align 1
  %34 = load i32, i32* %4, align 4
  store i32 %34, i32* %5, align 4
  br label %35

35:                                               ; preds = %28, %18
  br label %36

36:                                               ; preds = %35
  %37 = load i32, i32* %4, align 4
  %38 = add nsw i32 %37, 1
  store i32 %38, i32* %4, align 4
  br label %13

39:                                               ; preds = %13
  %40 = load i32, i32* %5, align 4
  ret i32 %40
}

; Function Attrs: nounwind readonly
declare dso_local i64 @strlen(i8*) #1

; Function Attrs: noinline nounwind uwtable
define dso_local void @main() #0 {
  %1 = alloca i32, align 4
  %2 = alloca i32, align 4
  %3 = alloca i32, align 4
  %4 = alloca [14 x i8], align 1
  %5 = alloca [11 x i8], align 1
  %6 = alloca [4 x i8], align 1
  br label %7

7:                                                ; preds = %75, %0
  %8 = getelementptr inbounds [11 x i8], [11 x i8]* %5, i64 0, i64 0
  %9 = getelementptr inbounds [4 x i8], [4 x i8]* %6, i64 0, i64 0
  %10 = call i32 (i8*, ...) @__isoc99_scanf(i8* getelementptr inbounds ([5 x i8], [5 x i8]* @.str, i64 0, i64 0), i8* %8, i8* %9)
  %11 = icmp ne i32 %10, -1
  br i1 %11, label %12, label %82

12:                                               ; preds = %7
  %13 = getelementptr inbounds [11 x i8], [11 x i8]* %5, i64 0, i64 0
  %14 = call i64 @strlen(i8* %13) #3
  %15 = trunc i64 %14 to i32
  store i32 %15, i32* %2, align 4
  %16 = getelementptr inbounds [11 x i8], [11 x i8]* %5, i64 0, i64 0
  %17 = call i32 @max(i8* %16)
  store i32 %17, i32* %1, align 4
  store i32 0, i32* %3, align 4
  br label %18

18:                                               ; preds = %30, %12
  %19 = load i32, i32* %3, align 4
  %20 = load i32, i32* %1, align 4
  %21 = icmp sle i32 %19, %20
  br i1 %21, label %22, label %33

22:                                               ; preds = %18
  %23 = load i32, i32* %3, align 4
  %24 = sext i32 %23 to i64
  %25 = getelementptr inbounds [11 x i8], [11 x i8]* %5, i64 0, i64 %24
  %26 = load i8, i8* %25, align 1
  %27 = load i32, i32* %3, align 4
  %28 = sext i32 %27 to i64
  %29 = getelementptr inbounds [14 x i8], [14 x i8]* %4, i64 0, i64 %28
  store i8 %26, i8* %29, align 1
  br label %30

30:                                               ; preds = %22
  %31 = load i32, i32* %3, align 4
  %32 = add nsw i32 %31, 1
  store i32 %32, i32* %3, align 4
  br label %18

33:                                               ; preds = %18
  %34 = load i32, i32* %1, align 4
  %35 = add nsw i32 %34, 1
  store i32 %35, i32* %3, align 4
  br label %36

36:                                               ; preds = %52, %33
  %37 = load i32, i32* %3, align 4
  %38 = load i32, i32* %1, align 4
  %39 = add nsw i32 %38, 3
  %40 = icmp sle i32 %37, %39
  br i1 %40, label %41, label %55

41:                                               ; preds = %36
  %42 = load i32, i32* %3, align 4
  %43 = load i32, i32* %1, align 4
  %44 = sub nsw i32 %42, %43
  %45 = sub nsw i32 %44, 1
  %46 = sext i32 %45 to i64
  %47 = getelementptr inbounds [4 x i8], [4 x i8]* %6, i64 0, i64 %46
  %48 = load i8, i8* %47, align 1
  %49 = load i32, i32* %3, align 4
  %50 = sext i32 %49 to i64
  %51 = getelementptr inbounds [14 x i8], [14 x i8]* %4, i64 0, i64 %50
  store i8 %48, i8* %51, align 1
  br label %52

52:                                               ; preds = %41
  %53 = load i32, i32* %3, align 4
  %54 = add nsw i32 %53, 1
  store i32 %54, i32* %3, align 4
  br label %36

55:                                               ; preds = %36
  %56 = load i32, i32* %1, align 4
  %57 = add nsw i32 %56, 4
  store i32 %57, i32* %3, align 4
  br label %58

58:                                               ; preds = %72, %55
  %59 = load i32, i32* %3, align 4
  %60 = load i32, i32* %2, align 4
  %61 = add nsw i32 %60, 2
  %62 = icmp sle i32 %59, %61
  br i1 %62, label %63, label %75

63:                                               ; preds = %58
  %64 = load i32, i32* %3, align 4
  %65 = sub nsw i32 %64, 3
  %66 = sext i32 %65 to i64
  %67 = getelementptr inbounds [11 x i8], [11 x i8]* %5, i64 0, i64 %66
  %68 = load i8, i8* %67, align 1
  %69 = load i32, i32* %3, align 4
  %70 = sext i32 %69 to i64
  %71 = getelementptr inbounds [14 x i8], [14 x i8]* %4, i64 0, i64 %70
  store i8 %68, i8* %71, align 1
  br label %72

72:                                               ; preds = %63
  %73 = load i32, i32* %3, align 4
  %74 = add nsw i32 %73, 1
  store i32 %74, i32* %3, align 4
  br label %58

75:                                               ; preds = %58
  %76 = load i32, i32* %2, align 4
  %77 = add nsw i32 %76, 3
  %78 = sext i32 %77 to i64
  %79 = getelementptr inbounds [14 x i8], [14 x i8]* %4, i64 0, i64 %78
  store i8 0, i8* %79, align 1
  %80 = getelementptr inbounds [14 x i8], [14 x i8]* %4, i64 0, i64 0
  %81 = call i32 (i8*, ...) @printf(i8* getelementptr inbounds ([4 x i8], [4 x i8]* @.str.1, i64 0, i64 0), i8* %80)
  br label %7

82:                                               ; preds = %7
  ret void
}

declare dso_local i32 @__isoc99_scanf(i8*, ...) #2

declare dso_local i32 @printf(i8*, ...) #2


!llvm.module.flags = !{!0}
!llvm.ident = !{!1}

!0 = !{i32 1, !"wchar_size", i32 4}
!1 = !{!"clang version 10.0.0-4ubuntu1 "}
